
There are no discarded input sections

Memory Configuration

Name             Origin             Length             Attributes
_sysmem          0x0000000080000000 0x0000000008000000 axw!rl
*default*        0x0000000000000000 0xffffffffffffffff

Linker script and memory map


.text           0x0000000080000000     0xfff0
                0x0000000080000000                PROVIDE (_mmap_text_start = ABSOLUTE (.))
 *(.text.entry)
 .text.entry    0x0000000080000000      0x16c .build/bootstrap_asm.o
                0x0000000080000074                __noop
 *(.text .text.*)
 .text          0x000000008000016c      0x27a .build/create.o
                0x000000008000016c                wrapper
                0x00000000800001e8                create_thread
 .text          0x00000000800003e6      0x1f2 .build/initialize.o
                0x00000000800003e6                initialize
 .text          0x00000000800005d8      0x230 .build/semaphore.o
                0x00000000800005d8                sem_create
                0x0000000080000678                sem_free
                0x00000000800006bc                sem_wait
                0x000000008000072e                sem_post
 .text          0x0000000080000808       0xde .build/traps.o
                0x0000000080000808                __sys_capture_syscall
                0x0000000080000816                raise_syscall
                0x0000000080000862                handle_exception
 .text          0x00000000800008e6      0x240 .build/queue.o
                0x00000000800008e6                thread_enqueue
                0x0000000080000a40                thread_dequeue
 .text          0x0000000080000b26      0x2ca .build/bs.o
                0x0000000080000b26                bs_mk_ramdisk
                0x0000000080000bda                bs_stats
                0x0000000080000c18                bs_free_ramdisk
                0x0000000080000c60                bs_read
                0x0000000080000d28                bs_write
 .text          0x0000000080000df0      0x2a6 .build/sleep.o
                0x0000000080000df0                sleep
                0x0000000080000f8a                unsleep
 .text          0x0000000080001096       0xc0 .build/kill.o
                0x0000000080001096                kill_thread
 .text          0x0000000080001156       0xa2 .build/join.o
                0x0000000080001156                join_thread
 .text          0x00000000800011f8       0xbe .build/resume.o
                0x00000000800011f8                resume_thread
 .text          0x00000000800012b6      0x500 .build/fsutil.o
                0x00000000800012b6                fs_print_fsd
                0x000000008000133c                fs_print_mask
                0x000000008000145a                fs_print_oft
                0x0000000080001542                fs_print_root
                0x00000000800015ec                fs_print_fd
 .text          0x00000000800017b6      0x11a .build/resched.o
                0x00000000800017b6                resched
 .text          0x00000000800018d0       0x9c .build/suspend.o
                0x00000000800018d0                suspend_thread
 .text          0x000000008000196c        0x0 .build/mmap.o
 .text          0x000000008000196c      0x4aa .build/fs.o
                0x000000008000196c                fs_setmaskbit
                0x00000000800019f8                fs_clearmaskbit
                0x0000000080001a90                fs_getmaskbit
                0x0000000080001aec                fs_mkfs
                0x0000000080001c4e                fs_mount
                0x0000000080001d90                fs_umount
 .text          0x0000000080001e16      0x3a4 .build/uart.o
                0x0000000080001e16                __sys_putc
                0x0000000080001e5c                __sys_getc
                0x0000000080001ebe                uart_putc
                0x0000000080001eea                uart_getc
                0x0000000080001f0a                set_uart_interrupt
                0x0000000080001f7c                uart_handler
                0x00000000800020c2                uart_init
 .text          0x00000000800021ba       0xa0 .build/plic.o
                0x00000000800021ba                plic_init
                0x00000000800021e6                handle_plic
 .text          0x000000008000225a      0x136 .build/tty.o
                0x000000008000225a                tty_init
                0x0000000080002268                tty_getc
                0x00000000800022fa                tty_putc
 .text          0x0000000080002390      0x1b4 .build/timer.o
                0x0000000080002390                clk_init
                0x00000000800023bc                handle_clk
 .text          0x0000000080002544      0x180 .build/echo.o
                0x0000000080002544                builtin_echo
 .text          0x00000000800026c4       0xbc .build/hello.o
                0x00000000800026c4                builtin_hello
 .text          0x0000000080002780      0x29e .build/shell.o
                0x0000000080002780                isSubstring
                0x0000000080002812                match
                0x0000000080002894                shell
 .text          0x0000000080002a1e       0x9e .build/barelib.o
                0x0000000080002a1e                memset
                0x0000000080002a6a                memcpy
 .text          0x0000000080002abc       0x26 .build/fs_seek.o
                0x0000000080002abc                fs_seek
 .text          0x0000000080002ae2      0x282 .build/printf.o
                0x0000000080002ae2                printf
 .text          0x0000000080002d64      0x24c .build/fs_open.o
                0x0000000080002d64                fs_open
 .text          0x0000000080002fb0      0x3a8 .build/fs_write.o
                0x0000000080002fb0                fs_get_free_block
                0x000000008000300a                fs_write
 .text          0x0000000080003358       0x90 .build/fs_close.o
                0x0000000080003358                fs_close
 .text          0x00000000800033e8      0x2c0 .build/malloc.o
                0x00000000800033e8                heap_init
                0x000000008000347a                malloc
                0x0000000080003588                free
 .text          0x00000000800036a8      0x216 .build/fs_create.o
                0x00000000800036a8                fs_create
 .text          0x00000000800038be      0x28c .build/fs_read.o
                0x00000000800038be                fs_read
 .text          0x0000000080003b4a       0x20 .build/interrupts_asm.o
                0x0000000080003b4a                set_interrupt
                0x0000000080003b50                disable_interrupts
                0x0000000080003b56                enable_interrupts
                0x0000000080003b5c                restore_interrupts
                0x0000000080003b62                is_interrupting
 .text          0x0000000080003b6a      0x116 .build/ctxsw_asm.o
                0x0000000080003b6a                _sys_thread_loaded
                0x0000000080003b6e                ctxsw
                0x0000000080003c68                ctxload
 .text          0x0000000080003c80        0x0 .build/bootstrap_asm.o
 .text          0x0000000080003c80     0x1bb8 .build/ms4.o
                0x0000000080005506                t__ms4
 .text          0x0000000080005838      0xe18 .build/ms8.o
                0x0000000080006386                t__ms8_setup
                0x000000008000639c                t__ms8
 .text          0x0000000080006650      0x872 .build/testutils.o
                0x0000000080006650                t__print
                0x000000008000668a                t__strcpy
                0x00000000800066ce                t__hexcpy
                0x00000000800067ca                t__intcpy
                0x00000000800068bc                t__mem_snapshot
                0x0000000080006a48                t__mem_reset
                0x0000000080006b60                t__mem_restore
                0x0000000080006cec                t__mark_timeout
                0x0000000080006d6a                t__runner
                0x0000000080006e36                t__printer
 .text          0x0000000080006ec2     0x156a .build/ms3.o
                0x0000000080006fea                add_by_three
                0x00000000800070d8                state_tester
                0x00000000800082e2                t__ms3
 .text          0x000000008000842c     0x26dc .build/ms10.o
                0x000000008000a95a                t__ms10
 .text          0x000000008000ab08      0xc8e .build/ms7.o
                0x000000008000b5f2                t__ms7
 .text          0x000000008000b796      0x8c8 .build/ms1.o
                0x000000008000beba                t__ms1
 .text          0x000000008000c05e     0x1120 .build/ms9.o
                0x000000008000cf52                t__ms9
 .text          0x000000008000d17e     0x1776 .build/ms5.o
                0x000000008000e6d6                t__ms5
 .text          0x000000008000e8f4      0xae0 .build/wrappers.o
                0x000000008000e8f4                t__raw_stdout
                0x000000008000e90a                __wrap_uart_putc
                0x000000008000e980                __wrap_tty_putc
                0x000000008000e9a2                __wrap_uart_getc
                0x000000008000ea34                __wrap_tty_getc
                0x000000008000ea4c                t__set_io
                0x000000008000eb4e                t__check_io
                0x000000008000ec92                __wrap_sem_wait
                0x000000008000ecd6                __wrap_sem_post
                0x000000008000ed0a                __wrap_tty_init
                0x000000008000ed36                __wrap_uart_handler
                0x000000008000ed80                __wrap_handle_clk
                0x000000008000ee86                __wrap_resched
                0x000000008000f162                __wrap_join_thread
                0x000000008000f1a0                __wrap_resume_thread
                0x000000008000f1de                __wrap_create_thread
                0x000000008000f22c                __wrap_shell
                0x000000008000f252                t__run
                0x000000008000f2d8                __wrap_initialize
                0x000000008000f304                __wrap_ctxload
                0x000000008000f33c                __wrap_disable_interrupts
                0x000000008000f34c                __wrap_restore_interrupts
                0x000000008000f360                __wrap_builtin_hello
                0x000000008000f39a                __wrap_builtin_echo
 .text          0x000000008000f3d4      0x9d6 .build/ms2.o
                0x000000008000fb8c                t__ms2
 .text          0x000000008000fdaa      0x244 .build/timeout_asm.o
                0x000000008000feaa                t__status
                0x000000008000feae                t__timeout
                0x000000008000feb2                t__break
                0x000000008000fec2                t__reset
                0x000000008000fed2                t__with_timeout
                0x000000008000fff0                . = ALIGN (0x4)
 *fill*         0x000000008000ffee        0x2 
                0x000000008000fff0                PROVIDE (_mmap_text_end = ABSOLUTE (.))

.rodata         0x0000000080010000     0x6486
                0x0000000080010000                PROVIDE (_mmap_data_start = ABSOLUTE (.))
 *(.srodata .srodata.*)
 .srodata       0x0000000080010000        0x4 .build/timer.o
                0x0000000080010000                timer_interval
 .srodata       0x0000000080010004        0x4 .build/wrappers.o
 *(.rodata .rodata.*)
 .rodata        0x0000000080010008       0x7d .build/initialize.o
 *fill*         0x0000000080010085        0x3 
 .rodata        0x0000000080010088      0x1b4 .build/fsutil.o
 *fill*         0x000000008001023c        0x4 
 .rodata        0x0000000080010240        0xb .build/echo.o
 *fill*         0x000000008001024b        0x5 
 .rodata        0x0000000080010250       0x26 .build/hello.o
 *fill*         0x0000000080010276        0x2 
 .rodata        0x0000000080010278       0x51 .build/shell.o
 *fill*         0x00000000800102c9        0x7 
 .rodata        0x00000000800102d0       0x11 .build/printf.o
 *fill*         0x00000000800102e1        0x7 
 .rodata        0x00000000800102e8      0xff3 .build/ms4.o
 *fill*         0x00000000800112db        0x5 
 .rodata        0x00000000800112e0      0xaeb .build/ms8.o
 *fill*         0x0000000080011dcb        0x5 
 .rodata        0x0000000080011dd0       0x7a .build/testutils.o
 *fill*         0x0000000080011e4a        0x6 
 .rodata        0x0000000080011e50      0xc86 .build/ms3.o
 *fill*         0x0000000080012ad6        0x2 
 .rodata        0x0000000080012ad8      0x81e .build/ms10.o
 *fill*         0x00000000800132f6        0x2 
 .rodata        0x00000000800132f8      0x99d .build/ms7.o
 *fill*         0x0000000080013c95        0x3 
 .rodata        0x0000000080013c98      0x667 .build/ms1.o
 *fill*         0x00000000800142ff        0x1 
 .rodata        0x0000000080014300      0xbfe .build/ms9.o
 *fill*         0x0000000080014efe        0x2 
 .rodata        0x0000000080014f00      0xc40 .build/ms5.o
 .rodata        0x0000000080015b40      0x946 .build/ms2.o

.eh_frame       0x0000000080016488     0x1d40
 .eh_frame      0x0000000080016488       0x70 .build/create.o
 .eh_frame      0x00000000800164f8       0x30 .build/initialize.o
                                         0x40 (size before relaxing)
 .eh_frame      0x0000000080016528       0xa0 .build/semaphore.o
                                         0xb0 (size before relaxing)
 .eh_frame      0x00000000800165c8       0xb8 .build/traps.o
                                         0xc8 (size before relaxing)
 .eh_frame      0x0000000080016680       0x50 .build/queue.o
                                         0x60 (size before relaxing)
 .eh_frame      0x00000000800166d0       0xc8 .build/bs.o
                                         0xd8 (size before relaxing)
 .eh_frame      0x0000000080016798       0x58 .build/sleep.o
                                         0x70 (size before relaxing)
 .eh_frame      0x00000000800167f0       0x28 .build/kill.o
                                         0x40 (size before relaxing)
 .eh_frame      0x0000000080016818       0x28 .build/join.o
                                         0x40 (size before relaxing)
 .eh_frame      0x0000000080016840       0x28 .build/resume.o
                                         0x40 (size before relaxing)
 .eh_frame      0x0000000080016868       0xd0 .build/fsutil.o
                                         0xe8 (size before relaxing)
 .eh_frame      0x0000000080016938       0x30 .build/resched.o
                                         0x40 (size before relaxing)
 .eh_frame      0x0000000080016968       0x28 .build/suspend.o
                                         0x40 (size before relaxing)
 .eh_frame      0x0000000080016990       0xf0 .build/fs.o
                                        0x108 (size before relaxing)
 .eh_frame      0x0000000080016a80      0x118 .build/uart.o
                                        0x128 (size before relaxing)
 .eh_frame      0x0000000080016b98       0x90 .build/plic.o
                                         0xa8 (size before relaxing)
 .eh_frame      0x0000000080016c28       0x78 .build/tty.o
                                         0x88 (size before relaxing)
 .eh_frame      0x0000000080016ca0       0x90 .build/timer.o
                                         0xa8 (size before relaxing)
 .eh_frame      0x0000000080016d30       0x30 .build/echo.o
                                         0x40 (size before relaxing)
 .eh_frame      0x0000000080016d60       0x30 .build/hello.o
                                         0x40 (size before relaxing)
 .eh_frame      0x0000000080016d90       0x68 .build/shell.o
                                         0x80 (size before relaxing)
 .eh_frame      0x0000000080016df8       0x48 .build/barelib.o
                                         0x60 (size before relaxing)
 .eh_frame      0x0000000080016e40       0x28 .build/fs_seek.o
                                         0x38 (size before relaxing)
 .eh_frame      0x0000000080016e68       0x30 .build/printf.o
                                         0x40 (size before relaxing)
 .eh_frame      0x0000000080016e98       0x30 .build/fs_open.o
                                         0x40 (size before relaxing)
 .eh_frame      0x0000000080016ec8       0x58 .build/fs_write.o
                                         0x68 (size before relaxing)
 .eh_frame      0x0000000080016f20       0x28 .build/fs_close.o
                                         0x40 (size before relaxing)
 .eh_frame      0x0000000080016f48       0x78 .build/malloc.o
                                         0x88 (size before relaxing)
 .eh_frame      0x0000000080016fc0       0x30 .build/fs_create.o
                                         0x40 (size before relaxing)
 .eh_frame      0x0000000080016ff0       0x30 .build/fs_read.o
                                         0x40 (size before relaxing)
 .eh_frame      0x0000000080017020      0x1e8 .build/ms4.o
                                        0x1f8 (size before relaxing)
 .eh_frame      0x0000000080017208      0x198 .build/ms8.o
                                        0x1a8 (size before relaxing)
 .eh_frame      0x00000000800173a0      0x188 .build/testutils.o
                                        0x1a0 (size before relaxing)
 .eh_frame      0x0000000080017528      0x290 .build/ms3.o
                                        0x2a8 (size before relaxing)
 .eh_frame      0x00000000800177b8       0xd8 .build/ms10.o
                                         0xe8 (size before relaxing)
 .eh_frame      0x0000000080017890       0xd0 .build/ms7.o
                                         0xe8 (size before relaxing)
 .eh_frame      0x0000000080017960       0xd0 .build/ms1.o
                                         0xe8 (size before relaxing)
 .eh_frame      0x0000000080017a30      0x158 .build/ms9.o
                                        0x170 (size before relaxing)
 .eh_frame      0x0000000080017b88      0x190 .build/ms5.o
                                        0x1a0 (size before relaxing)
 .eh_frame      0x0000000080017d18      0x3d8 .build/wrappers.o
                                        0x3e8 (size before relaxing)
 .eh_frame      0x00000000800180f0       0xd8 .build/ms2.o
                                         0xf0 (size before relaxing)

.rela.dyn       0x00000000800181c8        0x0
 .rela.sdata    0x00000000800181c8        0x0 .build/create.o
 .rela.text.entry
                0x00000000800181c8        0x0 .build/create.o
 .rela.text     0x00000000800181c8        0x0 .build/create.o

.data           0x00000000800181c8      0x5a0
                [!provide]                        PROVIDE (_mmap_write_start = ABSOLUTE (.))
 *(.sdata .sdata.*)
 .sdata         0x00000000800181c8       0x14 .build/traps.o
                0x00000000800181c8                syscall_table
                0x00000000800181d0                sys_syscall_hook
 .sdata         0x00000000800181dc        0x8 .build/queue.o
                0x00000000800181dc                ready_list
                0x00000000800181e0                sleep_list
 *fill*         0x00000000800181e4        0x4 
 .sdata         0x00000000800181e8       0x38 .build/mmap.o
                0x00000000800181e8                text_start
                0x00000000800181f0                text_end
                0x00000000800181f8                data_start
                0x0000000080018200                data_end
                0x0000000080018208                bss_start
                0x0000000080018210                mem_start
                0x0000000080018218                mem_end
 .sdata         0x0000000080018220       0x10 .build/uart.o
                0x0000000080018220                sys_putc_hook
                0x0000000080018228                sys_getc_hook
 .sdata         0x0000000080018230        0x8 .build/timer.o
                0x0000000080018230                clint_timer_addr
 .sdata         0x0000000080018238       0x10 .build/ms4.o
 .sdata         0x0000000080018248        0x8 .build/ms3.o
 .sdata         0x0000000080018250        0x8 .build/ms10.o
 .sdata         0x0000000080018258        0x8 .build/ms5.o
 .sdata         0x0000000080018260       0x18 .build/wrappers.o
                0x0000000080018270                t__enable_uart
                0x0000000080018271                t__auto_timeout
 *(.data .data.*)
 .data          0x0000000080018278        0x0 .build/create.o
 .data          0x0000000080018278        0x0 .build/initialize.o
 .data          0x0000000080018278        0x0 .build/semaphore.o
 .data          0x0000000080018278        0x0 .build/traps.o
 .data          0x0000000080018278        0x0 .build/queue.o
 .data          0x0000000080018278        0x0 .build/bs.o
 .data          0x0000000080018278        0x0 .build/sleep.o
 .data          0x0000000080018278        0x0 .build/kill.o
 .data          0x0000000080018278        0x0 .build/join.o
 .data          0x0000000080018278        0x0 .build/resume.o
 .data          0x0000000080018278        0x0 .build/fsutil.o
 .data          0x0000000080018278        0x0 .build/resched.o
 .data          0x0000000080018278        0x0 .build/suspend.o
 .data          0x0000000080018278        0x0 .build/mmap.o
 .data          0x0000000080018278        0x0 .build/fs.o
 .data          0x0000000080018278        0x0 .build/uart.o
 .data          0x0000000080018278        0x0 .build/plic.o
 .data          0x0000000080018278        0x0 .build/tty.o
 .data          0x0000000080018278        0x0 .build/timer.o
 .data          0x0000000080018278        0x0 .build/echo.o
 .data          0x0000000080018278        0x0 .build/hello.o
 .data          0x0000000080018278        0x0 .build/shell.o
 .data          0x0000000080018278        0x0 .build/barelib.o
 .data          0x0000000080018278        0x0 .build/fs_seek.o
 .data          0x0000000080018278        0x0 .build/printf.o
 .data          0x0000000080018278        0x0 .build/fs_open.o
 .data          0x0000000080018278        0x0 .build/fs_write.o
 .data          0x0000000080018278        0x0 .build/fs_close.o
 .data          0x0000000080018278        0x0 .build/malloc.o
 .data          0x0000000080018278        0x0 .build/fs_create.o
 .data          0x0000000080018278        0x0 .build/fs_read.o
 .data          0x0000000080018278        0x0 .build/interrupts_asm.o
 .data          0x0000000080018278        0x0 .build/ctxsw_asm.o
 .data          0x0000000080018278        0x0 .build/bootstrap_asm.o
 .data          0x0000000080018278       0x90 .build/ms4.o
 .data          0x0000000080018308       0xb8 .build/ms8.o
 .data          0x00000000800183c0        0x0 .build/testutils.o
 .data          0x00000000800183c0       0x90 .build/ms3.o
 .data          0x0000000080018450       0x90 .build/ms10.o
 .data          0x00000000800184e0       0x68 .build/ms7.o
 .data          0x0000000080018548       0x58 .build/ms1.o
 .data          0x00000000800185a0       0x98 .build/ms9.o
 .data          0x0000000080018638       0xa0 .build/ms5.o
 .data          0x00000000800186d8        0x0 .build/wrappers.o
 .data          0x00000000800186d8       0x90 .build/ms2.o
 .data          0x0000000080018768        0x0 .build/timeout_asm.o
                0x0000000080018768                PROVIDE (_mmap_data_end = ABSOLUTE (.))

.bss            0x0000000080018768     0x1b38
                0x0000000080018768                PROVIDE (_mmap_bss_start = ABSOLUTE (.))
 *(.sbss .sbss.*)
 .sbss          0x0000000080018768        0x4 .build/create.o
                0x0000000080018768                current_thread
 .sbss          0x000000008001876c        0x4 .build/initialize.o
                0x000000008001876c                boot_complete
 .sbss          0x0000000080018770        0x8 .build/fs.o
                0x0000000080018770                fsd
 .sbss          0x0000000080018778        0x8 .build/uart.o
                0x0000000080018778                uart
 .sbss          0x0000000080018780       0x18 .build/tty.o
                0x0000000080018780                tty_in_sem
                0x0000000080018784                tty_out_sem
                0x0000000080018788                tty_in_head
                0x000000008001878c                tty_in_count
                0x0000000080018790                tty_out_head
                0x0000000080018794                tty_out_count
 .sbss          0x0000000080018798       0x2c .build/wrappers.o
                0x0000000080018798                t__resched_called
                0x000000008001879c                t__uart_putc_called
                0x00000000800187a0                t__uart_getc_called
                0x00000000800187a4                t__join_thread_called
                0x00000000800187a8                t__resume_thread_called
                0x00000000800187ac                t__create_thread_called
                0x00000000800187b0                t__ctxload_called
                0x00000000800187b4                t__hello_called
                0x00000000800187b8                t__echo_called
                0x00000000800187bc                t__wait_called
                0x00000000800187bd                t__block_wait
                0x00000000800187be                t__post_called
                0x00000000800187bf                t__tty_init_called
                0x00000000800187c0                t__uart_interrupts
                0x00000000800187c1                t__default_timer
                0x00000000800187c2                t__default_resched
                0x00000000800187c3                t__skip_resched
 *(.bss .bss.*)
 *fill*         0x00000000800187c4        0x4 
 .bss           0x00000000800187c8      0x2a0 .build/create.o
                0x00000000800187c8                thread_table
 .bss           0x0000000080018a68        0x0 .build/initialize.o
 .bss           0x0000000080018a68      0x280 .build/semaphore.o
                0x0000000080018a68                sem_table
 .bss           0x0000000080018ce8        0x4 .build/traps.o
 *fill*         0x0000000080018cec        0x4 
 .bss           0x0000000080018cf0      0x108 .build/queue.o
                0x0000000080018cf0                thread_queue
 .bss           0x0000000080018df8       0x10 .build/bs.o
 .bss           0x0000000080018e08        0x0 .build/sleep.o
 .bss           0x0000000080018e08        0x0 .build/kill.o
 .bss           0x0000000080018e08        0x0 .build/join.o
 .bss           0x0000000080018e08        0x0 .build/resume.o
 .bss           0x0000000080018e08        0x0 .build/fsutil.o
 .bss           0x0000000080018e08        0x0 .build/resched.o
 .bss           0x0000000080018e08        0x0 .build/suspend.o
 .bss           0x0000000080018e08        0x0 .build/mmap.o
 .bss           0x0000000080018e08      0x2a8 .build/fs.o
                0x0000000080018e08                oft
 .bss           0x00000000800190b0        0x1 .build/uart.o
 .bss           0x00000000800190b1        0x0 .build/plic.o
 *fill*         0x00000000800190b1        0x7 
 .bss           0x00000000800190b8      0x100 .build/tty.o
                0x00000000800190b8                tty_in
                0x0000000080019138                tty_out
 .bss           0x00000000800191b8        0x0 .build/timer.o
 .bss           0x00000000800191b8        0x0 .build/echo.o
 .bss           0x00000000800191b8        0x0 .build/hello.o
 .bss           0x00000000800191b8        0x0 .build/shell.o
 .bss           0x00000000800191b8        0x0 .build/barelib.o
 .bss           0x00000000800191b8        0x0 .build/fs_seek.o
 .bss           0x00000000800191b8        0x0 .build/printf.o
 .bss           0x00000000800191b8        0x0 .build/fs_open.o
 .bss           0x00000000800191b8        0x0 .build/fs_write.o
 .bss           0x00000000800191b8        0x0 .build/fs_close.o
 .bss           0x00000000800191b8        0x8 .build/malloc.o
 .bss           0x00000000800191c0        0x0 .build/fs_create.o
 .bss           0x00000000800191c0        0x0 .build/fs_read.o
 .bss           0x00000000800191c0        0x0 .build/interrupts_asm.o
 .bss           0x00000000800191c0        0x0 .build/ctxsw_asm.o
 .bss           0x00000000800191c0        0x0 .build/bootstrap_asm.o
 .bss           0x00000000800191c0       0xa0 .build/ms4.o
 .bss           0x0000000080019260       0xc6 .build/ms8.o
 *fill*         0x0000000080019326        0x2 
 .bss           0x0000000080019328      0x394 .build/testutils.o
 *fill*         0x00000000800196bc        0x4 
 .bss           0x00000000800196c0       0x9a .build/ms3.o
 *fill*         0x000000008001975a        0x6 
 .bss           0x0000000080019760       0x98 .build/ms10.o
 .bss           0x00000000800197f8       0x70 .build/ms7.o
 .bss           0x0000000080019868       0x58 .build/ms1.o
 .bss           0x00000000800198c0       0x98 .build/ms9.o
 .bss           0x0000000080019958       0xa8 .build/ms5.o
 .bss           0x0000000080019a00      0x808 .build/wrappers.o
 .bss           0x000000008001a208       0x98 .build/ms2.o
 .bss           0x000000008001a2a0        0x0 .build/timeout_asm.o
                [!provide]                        PROVIDE (_mmap_bss_end = ABSOLUTE (.))
                0x00000000800222a0                . = (. + 0x8000)
                0x00000000800222a0                PROVIDE (_mmap_kstack_top = ABSOLUTE (.))
                0x00000000800232a0                . = (. + 0x1000)
                0x0000000080010800                PROVIDE (_mmap_global_ptr = (_mmap_data_start + 0x800))
                0x00000000800232a0                PROVIDE (_mmap_mem_start = ABSOLUTE (.))
                0x0000000087ffffff                PROVIDE (_mmap_mem_end = ((ORIGIN (_sysmem) + LENGTH (_sysmem)) - 0x1))
LOAD .build/create.o
LOAD .build/initialize.o
LOAD .build/semaphore.o
LOAD .build/traps.o
LOAD .build/queue.o
LOAD .build/bs.o
LOAD .build/sleep.o
LOAD .build/kill.o
LOAD .build/join.o
LOAD .build/resume.o
LOAD .build/fsutil.o
LOAD .build/resched.o
LOAD .build/suspend.o
LOAD .build/mmap.o
LOAD .build/fs.o
LOAD .build/uart.o
LOAD .build/plic.o
LOAD .build/tty.o
LOAD .build/timer.o
LOAD .build/echo.o
LOAD .build/hello.o
LOAD .build/shell.o
LOAD .build/barelib.o
LOAD .build/fs_seek.o
LOAD .build/printf.o
LOAD .build/fs_open.o
LOAD .build/fs_write.o
LOAD .build/fs_close.o
LOAD .build/malloc.o
LOAD .build/fs_create.o
LOAD .build/fs_read.o
LOAD .build/interrupts_asm.o
LOAD .build/ctxsw_asm.o
LOAD .build/bootstrap_asm.o
LOAD .build/ms4.o
LOAD .build/ms8.o
LOAD .build/testutils.o
LOAD .build/ms3.o
LOAD .build/ms10.o
LOAD .build/ms7.o
LOAD .build/ms1.o
LOAD .build/ms9.o
LOAD .build/ms5.o
LOAD .build/wrappers.o
LOAD .build/ms2.o
LOAD .build/timeout_asm.o
OUTPUT(.build/kernel.elf elf64-littleriscv)

.debug_info     0x0000000000000000     0x9665
 .debug_info    0x0000000000000000      0x2a6 .build/create.o
 .debug_info    0x00000000000002a6      0x2f4 .build/initialize.o
 .debug_info    0x000000000000059a      0x290 .build/semaphore.o
 .debug_info    0x000000000000082a      0x158 .build/traps.o
 .debug_info    0x0000000000000982      0x257 .build/queue.o
 .debug_info    0x0000000000000bd9      0x2a7 .build/bs.o
 .debug_info    0x0000000000000e80      0x2aa .build/sleep.o
 .debug_info    0x000000000000112a      0x19a .build/kill.o
 .debug_info    0x00000000000012c4      0x186 .build/join.o
 .debug_info    0x000000000000144a      0x19c .build/resume.o
 .debug_info    0x00000000000015e6      0x376 .build/fsutil.o
 .debug_info    0x000000000000195c      0x1cd .build/resched.o
 .debug_info    0x0000000000001b29      0x19d .build/suspend.o
 .debug_info    0x0000000000001cc6      0x134 .build/mmap.o
 .debug_info    0x0000000000001dfa      0x46b .build/fs.o
 .debug_info    0x0000000000002265      0x2ec .build/uart.o
 .debug_info    0x0000000000002551       0xe5 .build/plic.o
 .debug_info    0x0000000000002636      0x22a .build/tty.o
 .debug_info    0x0000000000002860      0x2c4 .build/timer.o
 .debug_info    0x0000000000002b24      0x188 .build/echo.o
 .debug_info    0x0000000000002cac      0x116 .build/hello.o
 .debug_info    0x0000000000002dc2      0x2af .build/shell.o
 .debug_info    0x0000000000003071       0xcd .build/barelib.o
 .debug_info    0x000000000000313e       0xba .build/fs_seek.o
 .debug_info    0x00000000000031f8      0x1e2 .build/printf.o
 .debug_info    0x00000000000033da      0x363 .build/fs_open.o
 .debug_info    0x000000000000373d      0x3ce .build/fs_write.o
 .debug_info    0x0000000000003b0b      0x183 .build/fs_close.o
 .debug_info    0x0000000000003c8e      0x1e3 .build/malloc.o
 .debug_info    0x0000000000003e71      0x317 .build/fs_create.o
 .debug_info    0x0000000000004188      0x351 .build/fs_read.o
 .debug_info    0x00000000000044d9       0x28 .build/interrupts_asm.o
 .debug_info    0x0000000000004501       0x29 .build/ctxsw_asm.o
 .debug_info    0x000000000000452a       0x29 .build/bootstrap_asm.o
 .debug_info    0x0000000000004553      0x7fe .build/ms4.o
 .debug_info    0x0000000000004d51      0x6ba .build/ms8.o
 .debug_info    0x000000000000540b      0x638 .build/testutils.o
 .debug_info    0x0000000000005a43      0x892 .build/ms3.o
 .debug_info    0x00000000000062d5      0xccf .build/ms10.o
 .debug_info    0x0000000000006fa4      0x47c .build/ms7.o
 .debug_info    0x0000000000007420      0x4e9 .build/ms1.o
 .debug_info    0x0000000000007909      0x801 .build/ms9.o
 .debug_info    0x000000000000810a      0x70e .build/ms5.o
 .debug_info    0x0000000000008818      0x9e3 .build/wrappers.o
 .debug_info    0x00000000000091fb      0x441 .build/ms2.o
 .debug_info    0x000000000000963c       0x29 .build/timeout_asm.o

.debug_abbrev   0x0000000000000000     0x39d7
 .debug_abbrev  0x0000000000000000      0x19e .build/create.o
 .debug_abbrev  0x000000000000019e      0x15c .build/initialize.o
 .debug_abbrev  0x00000000000002fa      0x189 .build/semaphore.o
 .debug_abbrev  0x0000000000000483      0x103 .build/traps.o
 .debug_abbrev  0x0000000000000586      0x11c .build/queue.o
 .debug_abbrev  0x00000000000006a2      0x142 .build/bs.o
 .debug_abbrev  0x00000000000007e4      0x13c .build/sleep.o
 .debug_abbrev  0x0000000000000920      0x125 .build/kill.o
 .debug_abbrev  0x0000000000000a45      0x10d .build/join.o
 .debug_abbrev  0x0000000000000b52      0x10c .build/resume.o
 .debug_abbrev  0x0000000000000c5e      0x164 .build/fsutil.o
 .debug_abbrev  0x0000000000000dc2      0x10f .build/resched.o
 .debug_abbrev  0x0000000000000ed1      0x10b .build/suspend.o
 .debug_abbrev  0x0000000000000fdc       0x68 .build/mmap.o
 .debug_abbrev  0x0000000000001044      0x1d3 .build/fs.o
 .debug_abbrev  0x0000000000001217      0x1a8 .build/uart.o
 .debug_abbrev  0x00000000000013bf       0xba .build/plic.o
 .debug_abbrev  0x0000000000001479      0x129 .build/tty.o
 .debug_abbrev  0x00000000000015a2      0x16f .build/timer.o
 .debug_abbrev  0x0000000000001711       0xf6 .build/echo.o
 .debug_abbrev  0x0000000000001807       0xd4 .build/hello.o
 .debug_abbrev  0x00000000000018db      0x163 .build/shell.o
 .debug_abbrev  0x0000000000001a3e       0x7e .build/barelib.o
 .debug_abbrev  0x0000000000001abc       0x78 .build/fs_seek.o
 .debug_abbrev  0x0000000000001b34       0xf3 .build/printf.o
 .debug_abbrev  0x0000000000001c27      0x142 .build/fs_open.o
 .debug_abbrev  0x0000000000001d69      0x181 .build/fs_write.o
 .debug_abbrev  0x0000000000001eea       0xe5 .build/fs_close.o
 .debug_abbrev  0x0000000000001fcf      0x100 .build/malloc.o
 .debug_abbrev  0x00000000000020cf      0x156 .build/fs_create.o
 .debug_abbrev  0x0000000000002225      0x142 .build/fs_read.o
 .debug_abbrev  0x0000000000002367       0x14 .build/interrupts_asm.o
 .debug_abbrev  0x000000000000237b       0x14 .build/ctxsw_asm.o
 .debug_abbrev  0x000000000000238f       0x14 .build/bootstrap_asm.o
 .debug_abbrev  0x00000000000023a3      0x24a .build/ms4.o
 .debug_abbrev  0x00000000000025ed      0x1c3 .build/ms8.o
 .debug_abbrev  0x00000000000027b0      0x1b0 .build/testutils.o
 .debug_abbrev  0x0000000000002960      0x294 .build/ms3.o
 .debug_abbrev  0x0000000000002bf4      0x1f0 .build/ms10.o
 .debug_abbrev  0x0000000000002de4      0x199 .build/ms7.o
 .debug_abbrev  0x0000000000002f7d      0x190 .build/ms1.o
 .debug_abbrev  0x000000000000310d      0x1e0 .build/ms9.o
 .debug_abbrev  0x00000000000032ed      0x21a .build/ms5.o
 .debug_abbrev  0x0000000000003507      0x344 .build/wrappers.o
 .debug_abbrev  0x000000000000384b      0x178 .build/ms2.o
 .debug_abbrev  0x00000000000039c3       0x14 .build/timeout_asm.o

.debug_aranges  0x0000000000000000      0x890
 .debug_aranges
                0x0000000000000000       0x30 .build/create.o
 .debug_aranges
                0x0000000000000030       0x30 .build/initialize.o
 .debug_aranges
                0x0000000000000060       0x30 .build/semaphore.o
 .debug_aranges
                0x0000000000000090       0x30 .build/traps.o
 .debug_aranges
                0x00000000000000c0       0x30 .build/queue.o
 .debug_aranges
                0x00000000000000f0       0x30 .build/bs.o
 .debug_aranges
                0x0000000000000120       0x30 .build/sleep.o
 .debug_aranges
                0x0000000000000150       0x30 .build/kill.o
 .debug_aranges
                0x0000000000000180       0x30 .build/join.o
 .debug_aranges
                0x00000000000001b0       0x30 .build/resume.o
 .debug_aranges
                0x00000000000001e0       0x30 .build/fsutil.o
 .debug_aranges
                0x0000000000000210       0x30 .build/resched.o
 .debug_aranges
                0x0000000000000240       0x30 .build/suspend.o
 .debug_aranges
                0x0000000000000270       0x20 .build/mmap.o
 .debug_aranges
                0x0000000000000290       0x30 .build/fs.o
 .debug_aranges
                0x00000000000002c0       0x30 .build/uart.o
 .debug_aranges
                0x00000000000002f0       0x30 .build/plic.o
 .debug_aranges
                0x0000000000000320       0x30 .build/tty.o
 .debug_aranges
                0x0000000000000350       0x30 .build/timer.o
 .debug_aranges
                0x0000000000000380       0x30 .build/echo.o
 .debug_aranges
                0x00000000000003b0       0x30 .build/hello.o
 .debug_aranges
                0x00000000000003e0       0x30 .build/shell.o
 .debug_aranges
                0x0000000000000410       0x30 .build/barelib.o
 .debug_aranges
                0x0000000000000440       0x30 .build/fs_seek.o
 .debug_aranges
                0x0000000000000470       0x30 .build/printf.o
 .debug_aranges
                0x00000000000004a0       0x30 .build/fs_open.o
 .debug_aranges
                0x00000000000004d0       0x30 .build/fs_write.o
 .debug_aranges
                0x0000000000000500       0x30 .build/fs_close.o
 .debug_aranges
                0x0000000000000530       0x30 .build/malloc.o
 .debug_aranges
                0x0000000000000560       0x30 .build/fs_create.o
 .debug_aranges
                0x0000000000000590       0x30 .build/fs_read.o
 .debug_aranges
                0x00000000000005c0       0x30 .build/interrupts_asm.o
 .debug_aranges
                0x00000000000005f0       0x30 .build/ctxsw_asm.o
 .debug_aranges
                0x0000000000000620       0x30 .build/bootstrap_asm.o
 .debug_aranges
                0x0000000000000650       0x30 .build/ms4.o
 .debug_aranges
                0x0000000000000680       0x30 .build/ms8.o
 .debug_aranges
                0x00000000000006b0       0x30 .build/testutils.o
 .debug_aranges
                0x00000000000006e0       0x30 .build/ms3.o
 .debug_aranges
                0x0000000000000710       0x30 .build/ms10.o
 .debug_aranges
                0x0000000000000740       0x30 .build/ms7.o
 .debug_aranges
                0x0000000000000770       0x30 .build/ms1.o
 .debug_aranges
                0x00000000000007a0       0x30 .build/ms9.o
 .debug_aranges
                0x00000000000007d0       0x30 .build/ms5.o
 .debug_aranges
                0x0000000000000800       0x30 .build/wrappers.o
 .debug_aranges
                0x0000000000000830       0x30 .build/ms2.o
 .debug_aranges
                0x0000000000000860       0x30 .build/timeout_asm.o

.debug_line     0x0000000000000000     0xaf72
 .debug_line    0x0000000000000000      0x2ad .build/create.o
 .debug_line    0x00000000000002ad      0x175 .build/initialize.o
 .debug_line    0x0000000000000422      0x1f0 .build/semaphore.o
 .debug_line    0x0000000000000612       0xdd .build/traps.o
 .debug_line    0x00000000000006ef      0x165 .build/queue.o
 .debug_line    0x0000000000000854      0x2ce .build/bs.o
 .debug_line    0x0000000000000b22      0x1e2 .build/sleep.o
 .debug_line    0x0000000000000d04       0xf7 .build/kill.o
 .debug_line    0x0000000000000dfb       0xc9 .build/join.o
 .debug_line    0x0000000000000ec4       0xde .build/resume.o
 .debug_line    0x0000000000000fa2      0x40b .build/fsutil.o
 .debug_line    0x00000000000013ad      0x102 .build/resched.o
 .debug_line    0x00000000000014af       0xd0 .build/suspend.o
 .debug_line    0x000000000000157f       0x43 .build/mmap.o
 .debug_line    0x00000000000015c2      0x474 .build/fs.o
 .debug_line    0x0000000000001a36      0x343 .build/uart.o
 .debug_line    0x0000000000001d79       0xb6 .build/plic.o
 .debug_line    0x0000000000001e2f      0x12f .build/tty.o
 .debug_line    0x0000000000001f5e      0x162 .build/timer.o
 .debug_line    0x00000000000020c0      0x1b6 .build/echo.o
 .debug_line    0x0000000000002276       0xfe .build/hello.o
 .debug_line    0x0000000000002374      0x2e6 .build/shell.o
 .debug_line    0x000000000000265a       0xfe .build/barelib.o
 .debug_line    0x0000000000002758       0x69 .build/fs_seek.o
 .debug_line    0x00000000000027c1      0x25c .build/printf.o
 .debug_line    0x0000000000002a1d      0x23e .build/fs_open.o
 .debug_line    0x0000000000002c5b      0x318 .build/fs_write.o
 .debug_line    0x0000000000002f73       0xb2 .build/fs_close.o
 .debug_line    0x0000000000003025      0x350 .build/malloc.o
 .debug_line    0x0000000000003375      0x27c .build/fs_create.o
 .debug_line    0x00000000000035f1      0x1e8 .build/fs_read.o
 .debug_line    0x00000000000037d9       0x88 .build/interrupts_asm.o
 .debug_line    0x0000000000003861      0x1e6 .build/ctxsw_asm.o
 .debug_line    0x0000000000003a47      0x146 .build/bootstrap_asm.o
 .debug_line    0x0000000000003b8d      0xc6f .build/ms4.o
 .debug_line    0x00000000000047fc      0x908 .build/ms8.o
 .debug_line    0x0000000000005104      0x6eb .build/testutils.o
 .debug_line    0x00000000000057ef      0xb5e .build/ms3.o
 .debug_line    0x000000000000634d     0x1925 .build/ms10.o
 .debug_line    0x0000000000007c72      0x7cd .build/ms7.o
 .debug_line    0x000000000000843f      0x535 .build/ms1.o
 .debug_line    0x0000000000008974      0xb29 .build/ms9.o
 .debug_line    0x000000000000949d      0xb95 .build/ms5.o
 .debug_line    0x000000000000a032      0x754 .build/wrappers.o
 .debug_line    0x000000000000a786      0x5e2 .build/ms2.o
 .debug_line    0x000000000000ad68      0x20a .build/timeout_asm.o

.debug_str      0x0000000000000000     0x131f
 .debug_str     0x0000000000000000     0x131f .build/create.o
                                        0x1c6 (size before relaxing)
 .debug_str     0x000000000000131f      0x23b .build/initialize.o
 .debug_str     0x000000000000131f      0x190 .build/semaphore.o
 .debug_str     0x000000000000131f      0x152 .build/traps.o
 .debug_str     0x000000000000131f      0x19e .build/queue.o
 .debug_str     0x000000000000131f      0x19e .build/bs.o
 .debug_str     0x000000000000131f      0x20c .build/sleep.o
 .debug_str     0x000000000000131f      0x173 .build/kill.o
 .debug_str     0x000000000000131f      0x17a .build/join.o
 .debug_str     0x000000000000131f      0x18f .build/resume.o
 .debug_str     0x000000000000131f      0x210 .build/fsutil.o
 .debug_str     0x000000000000131f      0x196 .build/resched.o
 .debug_str     0x000000000000131f      0x190 .build/suspend.o
 .debug_str     0x000000000000131f      0x17c .build/mmap.o
 .debug_str     0x000000000000131f      0x25c .build/fs.o
 .debug_str     0x000000000000131f      0x1fc .build/uart.o
 .debug_str     0x000000000000131f      0x11e .build/plic.o
 .debug_str     0x000000000000131f      0x187 .build/tty.o
 .debug_str     0x000000000000131f      0x219 .build/timer.o
 .debug_str     0x000000000000131f       0xff .build/echo.o
 .debug_str     0x000000000000131f       0xe7 .build/hello.o
 .debug_str     0x000000000000131f      0x17e .build/shell.o
 .debug_str     0x000000000000131f       0x7e .build/barelib.o
 .debug_str     0x000000000000131f       0xe7 .build/fs_seek.o
 .debug_str     0x000000000000131f      0x112 .build/printf.o
 .debug_str     0x000000000000131f      0x1f0 .build/fs_open.o
 .debug_str     0x000000000000131f      0x24e .build/fs_write.o
 .debug_str     0x000000000000131f      0x12b .build/fs_close.o
 .debug_str     0x000000000000131f      0x14e .build/malloc.o
 .debug_str     0x000000000000131f      0x1e7 .build/fs_create.o
 .debug_str     0x000000000000131f      0x210 .build/fs_read.o
 .debug_str     0x000000000000131f       0x3f .build/interrupts_asm.o
 .debug_str     0x000000000000131f       0x3a .build/ctxsw_asm.o
 .debug_str     0x000000000000131f       0x30 .build/bootstrap_asm.o
 .debug_str     0x000000000000131f      0x3eb .build/ms4.o
 .debug_str     0x000000000000131f      0x306 .build/ms8.o
 .debug_str     0x000000000000131f      0x247 .build/testutils.o
 .debug_str     0x000000000000131f      0x411 .build/ms3.o
 .debug_str     0x000000000000131f      0x249 .build/ms10.o
 .debug_str     0x000000000000131f      0x209 .build/ms7.o
 .debug_str     0x000000000000131f      0x26e .build/ms1.o
 .debug_str     0x000000000000131f      0x34e .build/ms9.o
 .debug_str     0x000000000000131f      0x331 .build/ms5.o
 .debug_str     0x000000000000131f      0x5f8 .build/wrappers.o
 .debug_str     0x000000000000131f      0x23e .build/ms2.o
 .debug_str     0x000000000000131f       0x3d .build/timeout_asm.o

.debug_line_str
                0x0000000000000000      0x48b
 .debug_line_str
                0x0000000000000000      0x48b .build/create.o
                                         0x96 (size before relaxing)
 .debug_line_str
                0x000000000000048b       0xcf .build/initialize.o
 .debug_line_str
                0x000000000000048b       0xaa .build/semaphore.o
 .debug_line_str
                0x000000000000048b       0x7d .build/traps.o
 .debug_line_str
                0x000000000000048b       0x8e .build/queue.o
 .debug_line_str
                0x000000000000048b       0x8f .build/bs.o
 .debug_line_str
                0x000000000000048b       0x9b .build/sleep.o
 .debug_line_str
                0x000000000000048b       0x90 .build/kill.o
 .debug_line_str
                0x000000000000048b       0x90 .build/join.o
 .debug_line_str
                0x000000000000048b       0x9e .build/resume.o
 .debug_line_str
                0x000000000000048b       0x8e .build/fsutil.o
 .debug_line_str
                0x000000000000048b       0xa1 .build/resched.o
 .debug_line_str
                0x000000000000048b       0xa1 .build/suspend.o
 .debug_line_str
                0x000000000000048b       0x7a .build/mmap.o
 .debug_line_str
                0x000000000000048b       0x8f .build/fs.o
 .debug_line_str
                0x000000000000048b       0x8d .build/uart.o
 .debug_line_str
                0x000000000000048b       0x87 .build/plic.o
 .debug_line_str
                0x000000000000048b       0x8a .build/tty.o
 .debug_line_str
                0x000000000000048b       0x9b .build/timer.o
 .debug_line_str
                0x000000000000048b       0x7d .build/echo.o
 .debug_line_str
                0x000000000000048b       0x80 .build/hello.o
 .debug_line_str
                0x000000000000048b       0x91 .build/shell.o
 .debug_line_str
                0x000000000000048b       0x64 .build/barelib.o
 .debug_line_str
                0x000000000000048b       0x7d .build/fs_seek.o
 .debug_line_str
                0x000000000000048b       0x83 .build/printf.o
 .debug_line_str
                0x000000000000048b       0x82 .build/fs_open.o
 .debug_line_str
                0x000000000000048b       0x85 .build/fs_write.o
 .debug_line_str
                0x000000000000048b       0x85 .build/fs_close.o
 .debug_line_str
                0x000000000000048b       0x83 .build/malloc.o
 .debug_line_str
                0x000000000000048b       0x88 .build/fs_create.o
 .debug_line_str
                0x000000000000048b       0x82 .build/fs_read.o
 .debug_line_str
                0x000000000000048b       0x33 .build/interrupts_asm.o
 .debug_line_str
                0x000000000000048b       0x2e .build/ctxsw_asm.o
 .debug_line_str
                0x000000000000048b       0x24 .build/bootstrap_asm.o
 .debug_line_str
                0x000000000000048b       0x9f .build/ms4.o
 .debug_line_str
                0x000000000000048b       0x87 .build/ms8.o
 .debug_line_str
                0x000000000000048b       0x9c .build/testutils.o
 .debug_line_str
                0x000000000000048b       0x92 .build/ms3.o
 .debug_line_str
                0x000000000000048b       0x89 .build/ms10.o
 .debug_line_str
                0x000000000000048b       0x8a .build/ms7.o
 .debug_line_str
                0x000000000000048b       0x8a .build/ms1.o
 .debug_line_str
                0x000000000000048b       0x86 .build/ms9.o
 .debug_line_str
                0x000000000000048b       0x9a .build/ms5.o
 .debug_line_str
                0x000000000000048b       0x99 .build/wrappers.o
 .debug_line_str
                0x000000000000048b       0x81 .build/ms2.o
 .debug_line_str
                0x000000000000048b       0x31 .build/timeout_asm.o

.comment        0x0000000000000000        0xf
 .comment       0x0000000000000000        0xf .build/create.o
                                         0x10 (size before relaxing)
 .comment       0x000000000000000f       0x10 .build/initialize.o
 .comment       0x000000000000000f       0x10 .build/semaphore.o
 .comment       0x000000000000000f       0x10 .build/traps.o
 .comment       0x000000000000000f       0x10 .build/queue.o
 .comment       0x000000000000000f       0x10 .build/bs.o
 .comment       0x000000000000000f       0x10 .build/sleep.o
 .comment       0x000000000000000f       0x10 .build/kill.o
 .comment       0x000000000000000f       0x10 .build/join.o
 .comment       0x000000000000000f       0x10 .build/resume.o
 .comment       0x000000000000000f       0x10 .build/fsutil.o
 .comment       0x000000000000000f       0x10 .build/resched.o
 .comment       0x000000000000000f       0x10 .build/suspend.o
 .comment       0x000000000000000f       0x10 .build/mmap.o
 .comment       0x000000000000000f       0x10 .build/fs.o
 .comment       0x000000000000000f       0x10 .build/uart.o
 .comment       0x000000000000000f       0x10 .build/plic.o
 .comment       0x000000000000000f       0x10 .build/tty.o
 .comment       0x000000000000000f       0x10 .build/timer.o
 .comment       0x000000000000000f       0x10 .build/echo.o
 .comment       0x000000000000000f       0x10 .build/hello.o
 .comment       0x000000000000000f       0x10 .build/shell.o
 .comment       0x000000000000000f       0x10 .build/barelib.o
 .comment       0x000000000000000f       0x10 .build/fs_seek.o
 .comment       0x000000000000000f       0x10 .build/printf.o
 .comment       0x000000000000000f       0x10 .build/fs_open.o
 .comment       0x000000000000000f       0x10 .build/fs_write.o
 .comment       0x000000000000000f       0x10 .build/fs_close.o
 .comment       0x000000000000000f       0x10 .build/malloc.o
 .comment       0x000000000000000f       0x10 .build/fs_create.o
 .comment       0x000000000000000f       0x10 .build/fs_read.o
 .comment       0x000000000000000f       0x10 .build/ms4.o
 .comment       0x000000000000000f       0x10 .build/ms8.o
 .comment       0x000000000000000f       0x10 .build/testutils.o
 .comment       0x000000000000000f       0x10 .build/ms3.o
 .comment       0x000000000000000f       0x10 .build/ms10.o
 .comment       0x000000000000000f       0x10 .build/ms7.o
 .comment       0x000000000000000f       0x10 .build/ms1.o
 .comment       0x000000000000000f       0x10 .build/ms9.o
 .comment       0x000000000000000f       0x10 .build/ms5.o
 .comment       0x000000000000000f       0x10 .build/wrappers.o
 .comment       0x000000000000000f       0x10 .build/ms2.o

.note.GNU-stack
                0x0000000000000000        0x0
 .note.GNU-stack
                0x0000000000000000        0x0 .build/create.o
 .note.GNU-stack
                0x0000000000000000        0x0 .build/initialize.o
 .note.GNU-stack
                0x0000000000000000        0x0 .build/semaphore.o
 .note.GNU-stack
                0x0000000000000000        0x0 .build/traps.o
 .note.GNU-stack
                0x0000000000000000        0x0 .build/queue.o
 .note.GNU-stack
                0x0000000000000000        0x0 .build/bs.o
 .note.GNU-stack
                0x0000000000000000        0x0 .build/sleep.o
 .note.GNU-stack
                0x0000000000000000        0x0 .build/kill.o
 .note.GNU-stack
                0x0000000000000000        0x0 .build/join.o
 .note.GNU-stack
                0x0000000000000000        0x0 .build/resume.o
 .note.GNU-stack
                0x0000000000000000        0x0 .build/fsutil.o
 .note.GNU-stack
                0x0000000000000000        0x0 .build/resched.o
 .note.GNU-stack
                0x0000000000000000        0x0 .build/suspend.o
 .note.GNU-stack
                0x0000000000000000        0x0 .build/mmap.o
 .note.GNU-stack
                0x0000000000000000        0x0 .build/fs.o
 .note.GNU-stack
                0x0000000000000000        0x0 .build/uart.o
 .note.GNU-stack
                0x0000000000000000        0x0 .build/plic.o
 .note.GNU-stack
                0x0000000000000000        0x0 .build/tty.o
 .note.GNU-stack
                0x0000000000000000        0x0 .build/timer.o
 .note.GNU-stack
                0x0000000000000000        0x0 .build/echo.o
 .note.GNU-stack
                0x0000000000000000        0x0 .build/hello.o
 .note.GNU-stack
                0x0000000000000000        0x0 .build/shell.o
 .note.GNU-stack
                0x0000000000000000        0x0 .build/barelib.o
 .note.GNU-stack
                0x0000000000000000        0x0 .build/fs_seek.o
 .note.GNU-stack
                0x0000000000000000        0x0 .build/printf.o
 .note.GNU-stack
                0x0000000000000000        0x0 .build/fs_open.o
 .note.GNU-stack
                0x0000000000000000        0x0 .build/fs_write.o
 .note.GNU-stack
                0x0000000000000000        0x0 .build/fs_close.o
 .note.GNU-stack
                0x0000000000000000        0x0 .build/malloc.o
 .note.GNU-stack
                0x0000000000000000        0x0 .build/fs_create.o
 .note.GNU-stack
                0x0000000000000000        0x0 .build/fs_read.o
 .note.GNU-stack
                0x0000000000000000        0x0 .build/ms4.o
 .note.GNU-stack
                0x0000000000000000        0x0 .build/ms8.o
 .note.GNU-stack
                0x0000000000000000        0x0 .build/testutils.o
 .note.GNU-stack
                0x0000000000000000        0x0 .build/ms3.o
 .note.GNU-stack
                0x0000000000000000        0x0 .build/ms10.o
 .note.GNU-stack
                0x0000000000000000        0x0 .build/ms7.o
 .note.GNU-stack
                0x0000000000000000        0x0 .build/ms1.o
 .note.GNU-stack
                0x0000000000000000        0x0 .build/ms9.o
 .note.GNU-stack
                0x0000000000000000        0x0 .build/ms5.o
 .note.GNU-stack
                0x0000000000000000        0x0 .build/wrappers.o
 .note.GNU-stack
                0x0000000000000000        0x0 .build/ms2.o

.riscv.attributes
                0x0000000000000000       0x41
 .riscv.attributes
                0x0000000000000000       0x34 .build/create.o
 .riscv.attributes
                0x0000000000000034       0x34 .build/initialize.o
 .riscv.attributes
                0x0000000000000068       0x34 .build/semaphore.o
 .riscv.attributes
                0x000000000000009c       0x38 .build/traps.o
 .riscv.attributes
                0x00000000000000d4       0x34 .build/queue.o
 .riscv.attributes
                0x0000000000000108       0x34 .build/bs.o
 .riscv.attributes
                0x000000000000013c       0x34 .build/sleep.o
 .riscv.attributes
                0x0000000000000170       0x34 .build/kill.o
 .riscv.attributes
                0x00000000000001a4       0x34 .build/join.o
 .riscv.attributes
                0x00000000000001d8       0x34 .build/resume.o
 .riscv.attributes
                0x000000000000020c       0x34 .build/fsutil.o
 .riscv.attributes
                0x0000000000000240       0x34 .build/resched.o
 .riscv.attributes
                0x0000000000000274       0x34 .build/suspend.o
 .riscv.attributes
                0x00000000000002a8       0x34 .build/mmap.o
 .riscv.attributes
                0x00000000000002dc       0x34 .build/fs.o
 .riscv.attributes
                0x0000000000000310       0x34 .build/uart.o
 .riscv.attributes
                0x0000000000000344       0x38 .build/plic.o
 .riscv.attributes
                0x000000000000037c       0x34 .build/tty.o
 .riscv.attributes
                0x00000000000003b0       0x38 .build/timer.o
 .riscv.attributes
                0x00000000000003e8       0x34 .build/echo.o
 .riscv.attributes
                0x000000000000041c       0x34 .build/hello.o
 .riscv.attributes
                0x0000000000000450       0x34 .build/shell.o
 .riscv.attributes
                0x0000000000000484       0x34 .build/barelib.o
 .riscv.attributes
                0x00000000000004b8       0x34 .build/fs_seek.o
 .riscv.attributes
                0x00000000000004ec       0x34 .build/printf.o
 .riscv.attributes
                0x0000000000000520       0x34 .build/fs_open.o
 .riscv.attributes
                0x0000000000000554       0x34 .build/fs_write.o
 .riscv.attributes
                0x0000000000000588       0x34 .build/fs_close.o
 .riscv.attributes
                0x00000000000005bc       0x34 .build/malloc.o
 .riscv.attributes
                0x00000000000005f0       0x34 .build/fs_create.o
 .riscv.attributes
                0x0000000000000624       0x34 .build/fs_read.o
 .riscv.attributes
                0x0000000000000658       0x3f .build/interrupts_asm.o
 .riscv.attributes
                0x0000000000000697       0x3f .build/ctxsw_asm.o
 .riscv.attributes
                0x00000000000006d6       0x3f .build/bootstrap_asm.o
 .riscv.attributes
                0x0000000000000715       0x34 .build/ms4.o
 .riscv.attributes
                0x0000000000000749       0x34 .build/ms8.o
 .riscv.attributes
                0x000000000000077d       0x34 .build/testutils.o
 .riscv.attributes
                0x00000000000007b1       0x34 .build/ms3.o
 .riscv.attributes
                0x00000000000007e5       0x34 .build/ms10.o
 .riscv.attributes
                0x0000000000000819       0x34 .build/ms7.o
 .riscv.attributes
                0x000000000000084d       0x34 .build/ms1.o
 .riscv.attributes
                0x0000000000000881       0x34 .build/ms9.o
 .riscv.attributes
                0x00000000000008b5       0x34 .build/ms5.o
 .riscv.attributes
                0x00000000000008e9       0x41 .build/wrappers.o
 .riscv.attributes
                0x000000000000092a       0x34 .build/ms2.o
 .riscv.attributes
                0x000000000000095e       0x3f .build/timeout_asm.o
